; Function Attrs: mustprogress nounwind uwtable
define internal void @_ZL11moveArrayTyIN5clang6interp15FunctionPointerEEvPNS1_5BlockEPSt4byteS6_PKNS1_10DescriptorE(ptr nocapture readnone %0, ptr nocapture noundef %1, ptr nocapture noundef writeonly %2, ptr nocapture noundef readonly %3) #0 {
  %5 = getelementptr inbounds nuw i8, ptr %1, i64 24
  %6 = load i8, ptr %5, align 8
  %7 = trunc i8 %6 to i1
  br i1 %7, label %8, label %_ZNSt8optionalISt4pairIbSt10shared_ptrIN5clang6interp7InitMapEEEEaSESt9nullopt_t.exit

8:                                                ; preds = %4
  store i8 0, ptr %5, align 8
  %9 = getelementptr inbounds i8, ptr %1, i64 16
  %10 = load ptr, ptr %9, align 8
  %.not.i.i.i.i.i.i.i.i = icmp eq ptr %10, null
  br i1 %.not.i.i.i.i.i.i.i.i, label %_ZNSt8optionalISt4pairIbSt10shared_ptrIN5clang6interp7InitMapEEEEaSESt9nullopt_t.exit, label %11

11:                                               ; preds = %8
  %12 = getelementptr inbounds nuw i8, ptr %10, i64 8
  %13 = load atomic i64, ptr %12 acquire, align 8
  %14 = icmp eq i64 %13, 4294967297
  %15 = trunc i64 %13 to i32
  br i1 %14, label %16, label %21

16:                                               ; preds = %11
  store i32 0, ptr %12, align 8
  %17 = getelementptr inbounds nuw i8, ptr %10, i64 12
  store i32 0, ptr %17, align 4
  %18 = load ptr, ptr %10, align 8
  %19 = getelementptr inbounds i8, ptr %18, i64 16
  %20 = load ptr, ptr %19, align 8
  tail call void %20(ptr noundef nonnull align 8 dereferenceable(16) %10) #20
  br label %_ZNSt16_Sp_counted_baseILN9__gnu_cxx12_Lock_policyE2EE24_M_release_last_use_coldEv.exit.sink.split.i.i.i.i.i.i.i.i.i

21:                                               ; preds = %11
  %22 = load i8, ptr @__libc_single_threaded, align 1
  %.not.i.i.i.i.i.i.i.i.i = icmp eq i8 %22, 0
  br i1 %.not.i.i.i.i.i.i.i.i.i, label %25, label %23

23:                                               ; preds = %21
  %24 = add nsw i32 %15, -1
  store i32 %24, ptr %12, align 4
  br label %27

25:                                               ; preds = %21
  %26 = atomicrmw volatile add ptr %12, i32 -1 acq_rel, align 4
  br label %27

27:                                               ; preds = %25, %23
  %.0.i.i.i.i.i.i.i.i.i = phi i32 [ %15, %23 ], [ %26, %25 ]
  %28 = icmp eq i32 %.0.i.i.i.i.i.i.i.i.i, 1
  br i1 %28, label %29, label %_ZNSt8optionalISt4pairIbSt10shared_ptrIN5clang6interp7InitMapEEEEaSESt9nullopt_t.exit

29:                                               ; preds = %27
  %30 = load ptr, ptr %10, align 8
  %31 = getelementptr inbounds i8, ptr %30, i64 16
  %32 = load ptr, ptr %31, align 8
  tail call void %32(ptr noundef nonnull align 8 dereferenceable(16) %10) #20
  %33 = getelementptr inbounds nuw i8, ptr %10, i64 12
  %34 = load i8, ptr @__libc_single_threaded, align 1
  %.not.i.i.i.i.i.i.i.i.i.i.i = icmp eq i8 %34, 0
  br i1 %.not.i.i.i.i.i.i.i.i.i.i.i, label %38, label %35

35:                                               ; preds = %29
  %36 = load i32, ptr %33, align 4
  %37 = add nsw i32 %36, -1
  store i32 %37, ptr %33, align 4
  br label %40

38:                                               ; preds = %29
  %39 = atomicrmw volatile add ptr %33, i32 -1 acq_rel, align 4
  br label %40

40:                                               ; preds = %38, %35
  %.0.i.i.i.i.i.i.i.i.i.i.i = phi i32 [ %36, %35 ], [ %39, %38 ]
  %41 = icmp eq i32 %.0.i.i.i.i.i.i.i.i.i.i.i, 1
  br i1 %41, label %_ZNSt16_Sp_counted_baseILN9__gnu_cxx12_Lock_policyE2EE24_M_release_last_use_coldEv.exit.sink.split.i.i.i.i.i.i.i.i.i, label %_ZNSt8optionalISt4pairIbSt10shared_ptrIN5clang6interp7InitMapEEEEaSESt9nullopt_t.exit

_ZNSt16_Sp_counted_baseILN9__gnu_cxx12_Lock_policyE2EE24_M_release_last_use_coldEv.exit.sink.split.i.i.i.i.i.i.i.i.i: ; preds = %40, %16
  %42 = load ptr, ptr %10, align 8
  %43 = getelementptr inbounds i8, ptr %42, i64 24
  %44 = load ptr, ptr %43, align 8
  tail call void %44(ptr noundef nonnull align 8 dereferenceable(16) %10) #20
  br label %_ZNSt8optionalISt4pairIbSt10shared_ptrIN5clang6interp7InitMapEEEEaSESt9nullopt_t.exit

_ZNSt8optionalISt4pairIbSt10shared_ptrIN5clang6interp7InitMapEEEEaSESt9nullopt_t.exit: ; preds = %_ZNSt16_Sp_counted_baseILN9__gnu_cxx12_Lock_policyE2EE24_M_release_last_use_coldEv.exit.sink.split.i.i.i.i.i.i.i.i.i, %40, %27, %8, %4
  %45 = getelementptr i8, ptr %1, i64 32
  %46 = getelementptr i8, ptr %2, i64 32
  %47 = getelementptr inbounds nuw i8, ptr %3, i64 12
  %48 = load i32, ptr %47, align 4
  %49 = icmp eq i32 %48, -1
  br i1 %49, label %._crit_edge, label %_ZNK5clang6interp10Descriptor11getNumElemsEv.exit

_ZNK5clang6interp10Descriptor11getNumElemsEv.exit: ; preds = %_ZNSt8optionalISt4pairIbSt10shared_ptrIN5clang6interp7InitMapEEEEaSESt9nullopt_t.exit
  %50 = getelementptr inbounds nuw i8, ptr %3, i64 8
  %51 = load i32, ptr %50, align 8
  %.not = icmp ugt i32 %51, %48
  br i1 %.not, label %._crit_edge, label %.lr.ph.preheader

.lr.ph.preheader:                                 ; preds = %_ZNK5clang6interp10Descriptor11getNumElemsEv.exit
  %52 = udiv i32 %48, %51
  %wide.trip.count = zext i32 %52 to i64
  br label %.lr.ph

.lr.ph:                                           ; preds = %.lr.ph.preheader, %.lr.ph
  %indvars.iv = phi i64 [ 0, %.lr.ph.preheader ], [ %indvars.iv.next, %.lr.ph ]
  %53 = getelementptr inbounds %"class.clang::interp::FunctionPointer", ptr %45, i64 %indvars.iv
  %54 = getelementptr inbounds %"class.clang::interp::FunctionPointer", ptr %46, i64 %indvars.iv
  tail call void @llvm.memcpy.p0.p0.i64(ptr noundef nonnull align 8 dereferenceable(24) %54, ptr noundef nonnull align 8 dereferenceable(24) %53, i64 24, i1 false)
  %indvars.iv.next = add nuw nsw i64 %indvars.iv, 1
  %exitcond.not = icmp eq i64 %indvars.iv.next, %wide.trip.count
  br i1 %exitcond.not, label %._crit_edge, label %.lr.ph, !llvm.loop !35

._crit_edge:                                      ; preds = %.lr.ph, %_ZNSt8optionalISt4pairIbSt10shared_ptrIN5clang6interp7InitMapEEEEaSESt9nullopt_t.exit, %_ZNK5clang6interp10Descriptor11getNumElemsEv.exit
  ret void
}